target datalayout = "e-m:e-p270:32:32-p271:32:32-p272:64:64-i64:64-i128:128-f80:128-n8:16:32:64-S128"
target triple = "x86_64-pc-linux-gnu"

%struct.lwCanvas = type { i32, i32, ptr }

; Function Attrs: nounwind uwtable
define dso_local void @lwDrawPixel(ptr noundef %0, i32 noundef %1, i32 noundef %2, i32 noundef %3) #0 {
  %5 = alloca ptr, align 8
  %6 = alloca i32, align 4
  %7 = alloca i32, align 4
  %8 = alloca i32, align 4
  store ptr %0, ptr %5, align 8, !tbaa !40
  store i32 %1, ptr %6, align 4, !tbaa !15
  store i32 %2, ptr %7, align 4, !tbaa !15
  store i32 %3, ptr %8, align 4, !tbaa !15
  %9 = load i32, ptr %6, align 4, !tbaa !15
  %10 = icmp slt i32 %9, 0
  br i1 %10, label %26, label %11

11:                                               ; preds = %4
  %12 = load i32, ptr %6, align 4, !tbaa !15
  %13 = load ptr, ptr %5, align 8, !tbaa !40
  %14 = getelementptr inbounds nuw %struct.lwCanvas, ptr %13, i32 0, i32 0
  %15 = load i32, ptr %14, align 8, !tbaa !42
  %16 = icmp sge i32 %12, %15
  br i1 %16, label %26, label %17

17:                                               ; preds = %11
  %18 = load i32, ptr %7, align 4, !tbaa !15
  %19 = icmp slt i32 %18, 0
  br i1 %19, label %26, label %20

20:                                               ; preds = %17
  %21 = load i32, ptr %7, align 4, !tbaa !15
  %22 = load ptr, ptr %5, align 8, !tbaa !40
  %23 = getelementptr inbounds nuw %struct.lwCanvas, ptr %22, i32 0, i32 1
  %24 = load i32, ptr %23, align 4, !tbaa !44
  %25 = icmp sge i32 %21, %24
  br i1 %25, label %26, label %27

26:                                               ; preds = %20, %17, %11, %4
  br label %42

27:                                               ; preds = %20
  %28 = load i32, ptr %8, align 4, !tbaa !15
  %29 = trunc i32 %28 to i8
  %30 = load ptr, ptr %5, align 8, !tbaa !40
  %31 = getelementptr inbounds nuw %struct.lwCanvas, ptr %30, i32 0, i32 2
  %32 = load ptr, ptr %31, align 8, !tbaa !45
  %33 = load i32, ptr %6, align 4, !tbaa !15
  %34 = load i32, ptr %7, align 4, !tbaa !15
  %35 = load ptr, ptr %5, align 8, !tbaa !40
  %36 = getelementptr inbounds nuw %struct.lwCanvas, ptr %35, i32 0, i32 0
  %37 = load i32, ptr %36, align 8, !tbaa !42
  %38 = mul nsw i32 %34, %37
  %39 = add nsw i32 %33, %38
  %40 = sext i32 %39 to i64
  %41 = getelementptr inbounds i8, ptr %32, i64 %40
  store i8 %29, ptr %41, align 1, !tbaa !12
  br label %42

42:                                               ; preds = %27, %26
  ret void
}

; Function Attrs: nounwind uwtable
define dso_local void @lwDrawLine(ptr noundef %0, i32 noundef %1, i32 noundef %2, i32 noundef %3, i32 noundef %4, i32 noundef %5) #0 {
  %7 = alloca ptr, align 8
  %8 = alloca i32, align 4
  %9 = alloca i32, align 4
  %10 = alloca i32, align 4
  %11 = alloca i32, align 4
  %12 = alloca i32, align 4
  %13 = alloca i32, align 4
  %14 = alloca i32, align 4
  %15 = alloca i32, align 4
  %16 = alloca i32, align 4
  %17 = alloca i32, align 4
  %18 = alloca i32, align 4
  store ptr %0, ptr %7, align 8, !tbaa !40
  store i32 %1, ptr %8, align 4, !tbaa !15
  store i32 %2, ptr %9, align 4, !tbaa !15
  store i32 %3, ptr %10, align 4, !tbaa !15
  store i32 %4, ptr %11, align 4, !tbaa !15
  store i32 %5, ptr %12, align 4, !tbaa !15
  call void @llvm.lifetime.start.p0(i64 4, ptr %13) #9
  %19 = load i32, ptr %10, align 4, !tbaa !15
  %20 = load i32, ptr %8, align 4, !tbaa !15
  %21 = sub nsw i32 %19, %20
  %22 = call i32 @llvm.abs.i32(i32 %21, i1 true)
  store i32 %22, ptr %13, align 4, !tbaa !15
  call void @llvm.lifetime.start.p0(i64 4, ptr %14) #9
  %23 = load i32, ptr %11, align 4, !tbaa !15
  %24 = load i32, ptr %9, align 4, !tbaa !15
  %25 = sub nsw i32 %23, %24
  %26 = call i32 @llvm.abs.i32(i32 %25, i1 true)
  store i32 %26, ptr %14, align 4, !tbaa !15
  call void @llvm.lifetime.start.p0(i64 4, ptr %15) #9
  %27 = load i32, ptr %8, align 4, !tbaa !15
  %28 = load i32, ptr %10, align 4, !tbaa !15
  %29 = icmp slt i32 %27, %28
  %30 = select i1 %29, i32 1, i32 -1
  store i32 %30, ptr %15, align 4, !tbaa !15
  call void @llvm.lifetime.start.p0(i64 4, ptr %16) #9
  %31 = load i32, ptr %9, align 4, !tbaa !15
  %32 = load i32, ptr %11, align 4, !tbaa !15
  %33 = icmp slt i32 %31, %32
  %34 = select i1 %33, i32 1, i32 -1
  store i32 %34, ptr %16, align 4, !tbaa !15
  call void @llvm.lifetime.start.p0(i64 4, ptr %17) #9
  %35 = load i32, ptr %13, align 4, !tbaa !15
  %36 = load i32, ptr %14, align 4, !tbaa !15
  %37 = sub nsw i32 %35, %36
  store i32 %37, ptr %17, align 4, !tbaa !15
  call void @llvm.lifetime.start.p0(i64 4, ptr %18) #9
  br label %38

38:                                               ; preds = %77, %6
  br label %39

39:                                               ; preds = %38
  %40 = load ptr, ptr %7, align 8, !tbaa !40
  %41 = load i32, ptr %8, align 4, !tbaa !15
  %42 = load i32, ptr %9, align 4, !tbaa !15
  %43 = load i32, ptr %12, align 4, !tbaa !15
  call void @lwDrawPixel(ptr noundef %40, i32 noundef %41, i32 noundef %42, i32 noundef %43)
  %44 = load i32, ptr %8, align 4, !tbaa !15
  %45 = load i32, ptr %10, align 4, !tbaa !15
  %46 = icmp eq i32 %44, %45
  br i1 %46, label %47, label %52

47:                                               ; preds = %39
  %48 = load i32, ptr %9, align 4, !tbaa !15
  %49 = load i32, ptr %11, align 4, !tbaa !15
  %50 = icmp eq i32 %48, %49
  br i1 %50, label %51, label %52

51:                                               ; preds = %47
  br label %78

52:                                               ; preds = %47, %39
  %53 = load i32, ptr %17, align 4, !tbaa !15
  %54 = mul nsw i32 %53, 2
  store i32 %54, ptr %18, align 4, !tbaa !15
  %55 = load i32, ptr %18, align 4, !tbaa !15
  %56 = load i32, ptr %14, align 4, !tbaa !15
  %57 = sub nsw i32 0, %56
  %58 = icmp sgt i32 %55, %57
  br i1 %58, label %59, label %66

59:                                               ; preds = %52
  %60 = load i32, ptr %14, align 4, !tbaa !15
  %61 = load i32, ptr %17, align 4, !tbaa !15
  %62 = sub nsw i32 %61, %60
  store i32 %62, ptr %17, align 4, !tbaa !15
  %63 = load i32, ptr %15, align 4, !tbaa !15
  %64 = load i32, ptr %8, align 4, !tbaa !15
  %65 = add nsw i32 %64, %63
  store i32 %65, ptr %8, align 4, !tbaa !15
  br label %66

66:                                               ; preds = %59, %52
  %67 = load i32, ptr %18, align 4, !tbaa !15
  %68 = load i32, ptr %13, align 4, !tbaa !15
  %69 = icmp slt i32 %67, %68
  br i1 %69, label %70, label %77

70:                                               ; preds = %66
  %71 = load i32, ptr %13, align 4, !tbaa !15
  %72 = load i32, ptr %17, align 4, !tbaa !15
  %73 = add nsw i32 %72, %71
  store i32 %73, ptr %17, align 4, !tbaa !15
  %74 = load i32, ptr %16, align 4, !tbaa !15
  %75 = load i32, ptr %9, align 4, !tbaa !15
  %76 = add nsw i32 %75, %74
  store i32 %76, ptr %9, align 4, !tbaa !15
  br label %77

77:                                               ; preds = %70, %66
  br label %38

78:                                               ; preds = %51
  call void @llvm.lifetime.end.p0(i64 4, ptr %18) #9
  call void @llvm.lifetime.end.p0(i64 4, ptr %17) #9
  call void @llvm.lifetime.end.p0(i64 4, ptr %16) #9
  call void @llvm.lifetime.end.p0(i64 4, ptr %15) #9
  call void @llvm.lifetime.end.p0(i64 4, ptr %14) #9
  call void @llvm.lifetime.end.p0(i64 4, ptr %13) #9
  ret void
}

; Function Attrs: nounwind uwtable
define dso_local void @lwDrawSquare(ptr noundef %0, i32 noundef %1, i32 noundef %2, float noundef %3, float noundef %4, i32 noundef %5) #0 {
  %7 = alloca ptr, align 8
  %8 = alloca i32, align 4
  %9 = alloca i32, align 4
  %10 = alloca float, align 4
  %11 = alloca float, align 4
  %12 = alloca i32, align 4
  %13 = alloca [4 x i32], align 16
  %14 = alloca [4 x i32], align 16
  %15 = alloca float, align 4
  %16 = alloca i32, align 4
  %17 = alloca i32, align 4
  store ptr %0, ptr %7, align 8, !tbaa !40
  store i32 %1, ptr %8, align 4, !tbaa !15
  store i32 %2, ptr %9, align 4, !tbaa !15
  store float %3, ptr %10, align 4, !tbaa !46
  store float %4, ptr %11, align 4, !tbaa !46
  store i32 %5, ptr %12, align 4, !tbaa !15
  call void @llvm.lifetime.start.p0(i64 16, ptr %13) #9
  call void @llvm.lifetime.start.p0(i64 16, ptr %14) #9
  %18 = load float, ptr %10, align 4, !tbaa !46
  %19 = fpext float %18 to double
  %20 = fdiv double %19, 0x3FF6A09E667A35E6
  %21 = fptrunc double %20 to float
  store float %21, ptr %10, align 4, !tbaa !46
  %22 = load float, ptr %10, align 4, !tbaa !46
  %23 = fpext float %22 to double
  %24 = call double @llvm.round.f64(double %23)
  %25 = fptrunc double %24 to float
  store float %25, ptr %10, align 4, !tbaa !46
  call void @llvm.lifetime.start.p0(i64 4, ptr %15) #9
  %26 = load float, ptr %11, align 4, !tbaa !46
  %27 = fpext float %26 to double
  %28 = fadd double 0x3FE921FB54442D18, %27
  %29 = fptrunc double %28 to float
  store float %29, ptr %15, align 4, !tbaa !46
  call void @llvm.lifetime.start.p0(i64 4, ptr %16) #9
  store i32 0, ptr %16, align 4, !tbaa !15
  br label %30

30:                                               ; preds = %65, %6
  %31 = load i32, ptr %16, align 4, !tbaa !15
  %32 = icmp slt i32 %31, 4
  br i1 %32, label %34, label %33

33:                                               ; preds = %30
  call void @llvm.lifetime.end.p0(i64 4, ptr %16) #9
  br label %68

34:                                               ; preds = %30
  %35 = load float, ptr %15, align 4, !tbaa !46
  %36 = fpext float %35 to double
  %37 = call double @sin(double noundef %36) #9, !tbaa !15
  %38 = load float, ptr %10, align 4, !tbaa !46
  %39 = fpext float %38 to double
  %40 = load i32, ptr %8, align 4, !tbaa !15
  %41 = sitofp i32 %40 to double
  %42 = call double @llvm.fmuladd.f64(double %37, double %39, double %41)
  %43 = call double @llvm.round.f64(double %42)
  %44 = fptosi double %43 to i32
  %45 = load i32, ptr %16, align 4, !tbaa !15
  %46 = sext i32 %45 to i64
  %47 = getelementptr inbounds [4 x i32], ptr %13, i64 0, i64 %46
  store i32 %44, ptr %47, align 4, !tbaa !15
  %48 = load float, ptr %15, align 4, !tbaa !46
  %49 = fpext float %48 to double
  %50 = call double @cos(double noundef %49) #9, !tbaa !15
  %51 = load float, ptr %10, align 4, !tbaa !46
  %52 = fpext float %51 to double
  %53 = load i32, ptr %9, align 4, !tbaa !15
  %54 = sitofp i32 %53 to double
  %55 = call double @llvm.fmuladd.f64(double %50, double %52, double %54)
  %56 = call double @llvm.round.f64(double %55)
  %57 = fptosi double %56 to i32
  %58 = load i32, ptr %16, align 4, !tbaa !15
  %59 = sext i32 %58 to i64
  %60 = getelementptr inbounds [4 x i32], ptr %14, i64 0, i64 %59
  store i32 %57, ptr %60, align 4, !tbaa !15
  %61 = load float, ptr %15, align 4, !tbaa !46
  %62 = fpext float %61 to double
  %63 = fadd double %62, 0x3FF921FB54442D18
  %64 = fptrunc double %63 to float
  store float %64, ptr %15, align 4, !tbaa !46
  br label %65

65:                                               ; preds = %34
  %66 = load i32, ptr %16, align 4, !tbaa !15
  %67 = add nsw i32 %66, 1
  store i32 %67, ptr %16, align 4, !tbaa !15
  br label %30, !llvm.loop !48

68:                                               ; preds = %33
  call void @llvm.lifetime.start.p0(i64 4, ptr %17) #9
  store i32 0, ptr %17, align 4, !tbaa !15
  br label %69

69:                                               ; preds = %96, %68
  %70 = load i32, ptr %17, align 4, !tbaa !15
  %71 = icmp slt i32 %70, 4
  br i1 %71, label %73, label %72

72:                                               ; preds = %69
  call void @llvm.lifetime.end.p0(i64 4, ptr %17) #9
  br label %99

73:                                               ; preds = %69
  %74 = load ptr, ptr %7, align 8, !tbaa !40
  %75 = load i32, ptr %17, align 4, !tbaa !15
  %76 = sext i32 %75 to i64
  %77 = getelementptr inbounds [4 x i32], ptr %13, i64 0, i64 %76
  %78 = load i32, ptr %77, align 4, !tbaa !15
  %79 = load i32, ptr %17, align 4, !tbaa !15
  %80 = sext i32 %79 to i64
  %81 = getelementptr inbounds [4 x i32], ptr %14, i64 0, i64 %80
  %82 = load i32, ptr %81, align 4, !tbaa !15
  %83 = load i32, ptr %17, align 4, !tbaa !15
  %84 = add nsw i32 %83, 1
  %85 = srem i32 %84, 4
  %86 = sext i32 %85 to i64
  %87 = getelementptr inbounds [4 x i32], ptr %13, i64 0, i64 %86
  %88 = load i32, ptr %87, align 4, !tbaa !15
  %89 = load i32, ptr %17, align 4, !tbaa !15
  %90 = add nsw i32 %89, 1
  %91 = srem i32 %90, 4
  %92 = sext i32 %91 to i64
  %93 = getelementptr inbounds [4 x i32], ptr %14, i64 0, i64 %92
  %94 = load i32, ptr %93, align 4, !tbaa !15
  %95 = load i32, ptr %12, align 4, !tbaa !15
  call void @lwDrawLine(ptr noundef %74, i32 noundef %78, i32 noundef %82, i32 noundef %88, i32 noundef %94, i32 noundef %95)
  br label %96

96:                                               ; preds = %73
  %97 = load i32, ptr %17, align 4, !tbaa !15
  %98 = add nsw i32 %97, 1
  store i32 %98, ptr %17, align 4, !tbaa !15
  br label %69, !llvm.loop !50

99:                                               ; preds = %72
  call void @llvm.lifetime.end.p0(i64 4, ptr %15) #9
  call void @llvm.lifetime.end.p0(i64 16, ptr %14) #9
  call void @llvm.lifetime.end.p0(i64 16, ptr %13) #9
  ret void
}