; Function Attrs: nofree nounwind memory(write, argmem: readwrite) uwtable
define dso_local void @lwDrawSquare(ptr noundef readonly captures(none) %0, i32 noundef %1, i32 noundef %2, float noundef %3, float noundef %4, i32 noundef %5) local_unnamed_addr #11 {
  %7 = alloca [4 x i32], align 16
  %8 = alloca [4 x i32], align 16
  call void @llvm.lifetime.start.p0(i64 16, ptr nonnull %7) #14
  call void @llvm.lifetime.start.p0(i64 16, ptr nonnull %8) #14
  %9 = fpext float %3 to double
  %10 = fdiv double %9, 0x3FF6A09E667A35E6
  %11 = fptrunc double %10 to float
  %12 = tail call float @llvm.round.f32(float %11)
  %13 = fpext float %4 to double
  %14 = fadd double %13, 0x3FE921FB54442D18
  %15 = fpext float %12 to double
  %16 = sitofp i32 %1 to double
  %17 = sitofp i32 %2 to double
  br label %21

lwDrawLine.exit.preheader:                        ; preds = %21
  %18 = getelementptr inbounds nuw i8, ptr %0, i64 4
  %19 = trunc i32 %5 to i8
  %20 = getelementptr inbounds nuw i8, ptr %0, i64 8
  br label %35

21:                                               ; preds = %6, %21
  %indvars.iv = phi i64 [ 0, %6 ], [ %indvars.iv.next, %21 ]
  %.022.in23 = phi double [ %14, %6 ], [ %33, %21 ]
  %.022 = fptrunc double %.022.in23 to float
  %22 = fpext float %.022 to double
  %23 = tail call double @sin(double noundef %22) #14, !tbaa !10
  %24 = tail call double @llvm.fmuladd.f64(double %23, double %15, double %16)
  %25 = tail call double @llvm.round.f64(double %24)
  %26 = fptosi double %25 to i32
  %27 = getelementptr inbounds nuw [4 x i32], ptr %7, i64 0, i64 %indvars.iv
  store i32 %26, ptr %27, align 4, !tbaa !10
  %28 = tail call double @cos(double noundef %22) #14, !tbaa !10
  %29 = tail call double @llvm.fmuladd.f64(double %28, double %15, double %17)
  %30 = tail call double @llvm.round.f64(double %29)
  %31 = fptosi double %30 to i32
  %32 = getelementptr inbounds nuw [4 x i32], ptr %8, i64 0, i64 %indvars.iv
  store i32 %31, ptr %32, align 4, !tbaa !10
  %33 = fadd double %22, 0x3FF921FB54442D18
  %indvars.iv.next = add nuw nsw i64 %indvars.iv, 1
  %exitcond.not = icmp eq i64 %indvars.iv.next, 4
  br i1 %exitcond.not, label %lwDrawLine.exit.preheader, label %21, !llvm.loop !41

lwDrawLine.exit.loopexit:                         ; preds = %lwDrawPixel.exit.i
  %exitcond30.not = icmp eq i64 %indvars.iv.next28, 4
  br i1 %exitcond30.not, label %34, label %35, !llvm.loop !43

34:                                               ; preds = %lwDrawLine.exit.loopexit
  call void @llvm.lifetime.end.p0(i64 16, ptr nonnull %8) #14
  call void @llvm.lifetime.end.p0(i64 16, ptr nonnull %7) #14
  ret void

35:                                               ; preds = %lwDrawLine.exit.preheader, %lwDrawLine.exit.loopexit
  %indvars.iv27 = phi i64 [ 0, %lwDrawLine.exit.preheader ], [ %indvars.iv.next28, %lwDrawLine.exit.loopexit ]
  %36 = getelementptr inbounds nuw [4 x i32], ptr %7, i64 0, i64 %indvars.iv27
  %37 = load i32, ptr %36, align 4, !tbaa !10
  %38 = getelementptr inbounds nuw [4 x i32], ptr %8, i64 0, i64 %indvars.iv27
  %39 = load i32, ptr %38, align 4, !tbaa !10
  %indvars.iv.next28 = add nuw nsw i64 %indvars.iv27, 1
  %40 = and i64 %indvars.iv.next28, 3
  %41 = getelementptr inbounds nuw [4 x i32], ptr %7, i64 0, i64 %40
  %42 = load i32, ptr %41, align 4, !tbaa !10
  %43 = getelementptr inbounds nuw [4 x i32], ptr %8, i64 0, i64 %40
  %44 = load i32, ptr %43, align 4, !tbaa !10
  %45 = sub nsw i32 %42, %37
  %46 = tail call i32 @llvm.abs.i32(i32 %45, i1 true)
  %47 = sub nsw i32 %44, %39
  %48 = tail call i32 @llvm.abs.i32(i32 %47, i1 true)
  %49 = icmp slt i32 %37, %42
  %50 = select i1 %49, i32 1, i32 -1
  %51 = icmp slt i32 %39, %44
  %52 = select i1 %51, i32 1, i32 -1
  %53 = sub nsw i32 %46, %48
  %54 = sub nsw i32 0, %48
  br label %55

55:                                               ; preds = %71, %35
  %.032.i = phi i32 [ %39, %35 ], [ %.133.i, %71 ]
  %.030.i = phi i32 [ %53, %35 ], [ %.2.i, %71 ]
  %.0.i = phi i32 [ %37, %35 ], [ %.1.i, %71 ]
  %56 = icmp slt i32 %.0.i, 0
  br i1 %56, label %lwDrawPixel.exit.i, label %57

57:                                               ; preds = %55
  %58 = load i32, ptr %0, align 8, !tbaa !37
  %59 = icmp sge i32 %.0.i, %58
  %60 = icmp slt i32 %.032.i, 0
  %or.cond.i.i = or i1 %60, %59
  br i1 %or.cond.i.i, label %lwDrawPixel.exit.i, label %61

61:                                               ; preds = %57
  %62 = load i32, ptr %18, align 4, !tbaa !39
  %.not.i.i = icmp slt i32 %.032.i, %62
  br i1 %.not.i.i, label %63, label %lwDrawPixel.exit.i

63:                                               ; preds = %61
  %64 = load ptr, ptr %20, align 8, !tbaa !40
  %65 = mul nsw i32 %58, %.032.i
  %66 = add nuw nsw i32 %65, %.0.i
  %67 = zext nneg i32 %66 to i64
  %68 = getelementptr inbounds nuw i8, ptr %64, i64 %67
  store i8 %19, ptr %68, align 1, !tbaa !5
  br label %lwDrawPixel.exit.i

lwDrawPixel.exit.i:                               ; preds = %63, %61, %57, %55
  %69 = icmp eq i32 %.0.i, %42
  %70 = icmp eq i32 %.032.i, %44
  %or.cond.i = and i1 %70, %69
  br i1 %or.cond.i, label %lwDrawLine.exit.loopexit, label %71

71:                                               ; preds = %lwDrawPixel.exit.i
  %72 = shl nsw i32 %.030.i, 1
  %73 = icmp sgt i32 %72, %54
  %74 = select i1 %73, i32 %48, i32 0
  %.131.i = sub i32 %.030.i, %74
  %75 = select i1 %73, i32 %50, i32 0
  %.1.i = add nsw i32 %75, %.0.i
  %76 = icmp slt i32 %72, %46
  %77 = select i1 %76, i32 %52, i32 0
  %.133.i = add nsw i32 %77, %.032.i
  %78 = select i1 %76, i32 %46, i32 0
  %.2.i = add nsw i32 %.131.i, %78
  br label %55
}